target datalayout = "e-m:e-p270:32:32-p271:32:32-p272:64:64-i64:64-i128:128-f80:128-n8:16:32:64-S128"
target triple = "x86_64-unknown-linux-gnu"

; Function Attrs: mustprogress nounwind uwtable
define internal noundef i32 @_ZN12_GLOBAL__N_114getScriptPropsE11UScriptCode(i32 noundef %script) #1 {
entry:
  %retval = alloca i32, align 4
  %script.addr = alloca i32, align 4
  store i32 %script, ptr %script.addr, align 4
  %0 = load i32, ptr %script.addr, align 4
  %cmp = icmp sle i32 0, %0
  br i1 %cmp, label %land.lhs.true, label %if.else

land.lhs.true:                                    ; preds = %entry
  %1 = load i32, ptr %script.addr, align 4
  %cmp1 = icmp slt i32 %1, 200
  br i1 %cmp1, label %if.then, label %if.else

if.then:                                          ; preds = %land.lhs.true
  %2 = load i32, ptr %script.addr, align 4
  %idxprom = sext i32 %2 to i64
  %arrayidx = getelementptr inbounds [200 x i32], ptr @_ZN12_GLOBAL__N_112SCRIPT_PROPSE, i64 0, i64 %idxprom
  %3 = load i32, ptr %arrayidx, align 4
  store i32 %3, ptr %retval, align 4
  br label %return

if.else:                                          ; preds = %land.lhs.true, %entry
  store i32 0, ptr %retval, align 4
  br label %return

return:                                           ; preds = %if.else, %if.then
  %4 = load i32, ptr %retval, align 4
  ret i32 %4
}

; Function Attrs: mustprogress nounwind uwtable
define internal noundef signext i8 @_ZL9U_FAILURE10UErrorCode(i32 noundef %code) #1 {
entry:
  %code.addr = alloca i32, align 4
  store i32 %code, ptr %code.addr, align 4
  %0 = load i32, ptr %code.addr, align 4
  %cmp = icmp sgt i32 %0, 0
  %conv = zext i1 %cmp to i8
  ret i8 %conv
}

; Function Attrs: mustprogress uwtable
define i32 @uscript_getSampleString_75(i32 noundef %script, ptr noundef %dest, i32 noundef %capacity, ptr noundef %pErrorCode) #0 {
entry:
  %retval = alloca i32, align 4
  %script.addr = alloca i32, align 4
  %dest.addr = alloca ptr, align 8
  %capacity.addr = alloca i32, align 4
  %pErrorCode.addr = alloca ptr, align 8
  %sampleChar = alloca i32, align 4
  %length = alloca i32, align 4
  %i = alloca i32, align 4
  store i32 %script, ptr %script.addr, align 4
  store ptr %dest, ptr %dest.addr, align 8
  store i32 %capacity, ptr %capacity.addr, align 4
  store ptr %pErrorCode, ptr %pErrorCode.addr, align 8
  %0 = load ptr, ptr %pErrorCode.addr, align 8
  %1 = load i32, ptr %0, align 4
  %call = call noundef signext i8 @_ZL9U_FAILURE10UErrorCode(i32 noundef %1)
  %tobool = icmp ne i8 %call, 0
  br i1 %tobool, label %if.then, label %if.end

if.then:                                          ; preds = %entry
  store i32 0, ptr %retval, align 4
  br label %return

if.end:                                           ; preds = %entry
  %2 = load i32, ptr %capacity.addr, align 4
  %cmp = icmp slt i32 %2, 0
  br i1 %cmp, label %if.then3, label %lor.lhs.false

lor.lhs.false:                                    ; preds = %if.end
  %3 = load i32, ptr %capacity.addr, align 4
  %cmp1 = icmp sgt i32 %3, 0
  br i1 %cmp1, label %land.lhs.true, label %if.end4

land.lhs.true:                                    ; preds = %lor.lhs.false
  %4 = load ptr, ptr %dest.addr, align 8
  %cmp2 = icmp eq ptr %4, null
  br i1 %cmp2, label %if.then3, label %if.end4

if.then3:                                         ; preds = %land.lhs.true, %if.end
  %5 = load ptr, ptr %pErrorCode.addr, align 8
  store i32 1, ptr %5, align 4
  store i32 0, ptr %retval, align 4
  br label %return

if.end4:                                          ; preds = %land.lhs.true, %lor.lhs.false
  %6 = load i32, ptr %script.addr, align 4
  %call5 = call noundef i32 @_ZN12_GLOBAL__N_114getScriptPropsE11UScriptCode(i32 noundef %6)
  %and = and i32 %call5, 2097151
  store i32 %and, ptr %sampleChar, align 4
  %7 = load i32, ptr %sampleChar, align 4
  %cmp6 = icmp eq i32 %7, 0
  br i1 %cmp6, label %if.then7, label %if.else

if.then7:                                         ; preds = %if.end4
  store i32 0, ptr %length, align 4
  br label %if.end25

if.else:                                          ; preds = %if.end4
  %8 = load i32, ptr %sampleChar, align 4
  %cmp8 = icmp ule i32 %8, 65535
  %cond = select i1 %cmp8, i32 1, i32 2
  store i32 %cond, ptr %length, align 4
  %9 = load i32, ptr %length, align 4
  %10 = load i32, ptr %capacity.addr, align 4
  %cmp9 = icmp sle i32 %9, %10
  br i1 %cmp9, label %if.then10, label %if.end24

if.then10:                                        ; preds = %if.else
  store i32 0, ptr %i, align 4
  br label %do.body

do.body:                                          ; preds = %if.then10
  %11 = load i32, ptr %sampleChar, align 4
  %cmp11 = icmp ule i32 %11, 65535
  br i1 %cmp11, label %if.then12, label %if.else13

if.then12:                                        ; preds = %do.body
  %12 = load i32, ptr %sampleChar, align 4
  %conv = trunc i32 %12 to i16
  %13 = load ptr, ptr %dest.addr, align 8
  %14 = load i32, ptr %i, align 4
  %inc = add nsw i32 %14, 1
  store i32 %inc, ptr %i, align 4
  %idxprom = sext i32 %14 to i64
  %arrayidx = getelementptr inbounds i16, ptr %13, i64 %idxprom
  store i16 %conv, ptr %arrayidx, align 2
  br label %if.end23

if.else13:                                        ; preds = %do.body
  %15 = load i32, ptr %sampleChar, align 4
  %shr = ashr i32 %15, 10
  %add = add nsw i32 %shr, 55232
  %conv14 = trunc i32 %add to i16
  %16 = load ptr, ptr %dest.addr, align 8
  %17 = load i32, ptr %i, align 4
  %inc15 = add nsw i32 %17, 1
  store i32 %inc15, ptr %i, align 4
  %idxprom16 = sext i32 %17 to i64
  %arrayidx17 = getelementptr inbounds i16, ptr %16, i64 %idxprom16
  store i16 %conv14, ptr %arrayidx17, align 2
  %18 = load i32, ptr %sampleChar, align 4
  %and18 = and i32 %18, 1023
  %or = or i32 %and18, 56320
  %conv19 = trunc i32 %or to i16
  %19 = load ptr, ptr %dest.addr, align 8
  %20 = load i32, ptr %i, align 4
  %inc20 = add nsw i32 %20, 1
  store i32 %inc20, ptr %i, align 4
  %idxprom21 = sext i32 %20 to i64
  %arrayidx22 = getelementptr inbounds i16, ptr %19, i64 %idxprom21
  store i16 %conv19, ptr %arrayidx22, align 2
  br label %if.end23

if.end23:                                         ; preds = %if.else13, %if.then12
  br label %do.end

do.end:                                           ; preds = %if.end23
  br label %if.end24

if.end24:                                         ; preds = %do.end, %if.else
  br label %if.end25

if.end25:                                         ; preds = %if.end24, %if.then7
  %21 = load ptr, ptr %dest.addr, align 8
  %22 = load i32, ptr %capacity.addr, align 4
  %23 = load i32, ptr %length, align 4
  %24 = load ptr, ptr %pErrorCode.addr, align 8
  %call26 = call i32 @u_terminateUChars_75(ptr noundef %21, i32 noundef %22, i32 noundef %23, ptr noundef %24)
  store i32 %call26, ptr %retval, align 4
  br label %return

return:                                           ; preds = %if.end25, %if.then3, %if.then
  %25 = load i32, ptr %retval, align 4
  ret i32 %25
}