; Function Attrs: mustprogress uwtable
define i32 @uscript_getSampleString_75(i32 noundef %script, ptr noundef %dest, i32 noundef %capacity, ptr noundef %pErrorCode) local_unnamed_addr #0 {
entry:
  %0 = load i32, ptr %pErrorCode, align 4
  %cmp.i = icmp slt i32 %0, 1
  br i1 %cmp.i, label %if.end, label %return

if.end:                                           ; preds = %entry
  %cmp = icmp slt i32 %capacity, 0
  br i1 %cmp, label %if.then3, label %lor.lhs.false

lor.lhs.false:                                    ; preds = %if.end
  %cmp1 = icmp ne i32 %capacity, 0
  %cmp2 = icmp eq ptr %dest, null
  %or.cond = and i1 %cmp2, %cmp1
  br i1 %or.cond, label %if.then3, label %if.end4

if.then3:                                         ; preds = %lor.lhs.false, %if.end
  store i32 1, ptr %pErrorCode, align 4
  br label %return

if.end4:                                          ; preds = %lor.lhs.false
  %or.cond.i = icmp ult i32 %script, 200
  br i1 %or.cond.i, label %_ZN12_GLOBAL__N_114getScriptPropsE11UScriptCode.exit, label %if.end25

_ZN12_GLOBAL__N_114getScriptPropsE11UScriptCode.exit: ; preds = %if.end4
  %idxprom.i = zext nneg i32 %script to i64
  %arrayidx.i = getelementptr inbounds [200 x i32], ptr @_ZN12_GLOBAL__N_112SCRIPT_PROPSE, i64 0, i64 %idxprom.i
  %1 = load i32, ptr %arrayidx.i, align 4
  %and = and i32 %1, 2097151
  %cmp6 = icmp eq i32 %and, 0
  br i1 %cmp6, label %if.end25, label %if.else

if.else:                                          ; preds = %_ZN12_GLOBAL__N_114getScriptPropsE11UScriptCode.exit
  %cmp8 = icmp ult i32 %and, 65536
  %cond = select i1 %cmp8, i32 1, i32 2
  %cmp9.not = icmp ugt i32 %cond, %capacity
  br i1 %cmp9.not, label %if.end25, label %if.then10

if.then10:                                        ; preds = %if.else
  br i1 %cmp8, label %if.then12, label %if.else13

if.then12:                                        ; preds = %if.then10
  %conv = trunc i32 %1 to i16
  store i16 %conv, ptr %dest, align 2
  br label %if.end25

if.else13:                                        ; preds = %if.then10
  %shr = lshr i32 %and, 10
  %2 = trunc i32 %shr to i16
  %conv14 = add nuw nsw i16 %2, -10304
  store i16 %conv14, ptr %dest, align 2
  %3 = trunc i32 %1 to i16
  %4 = and i16 %3, 1023
  %conv19 = or disjoint i16 %4, -9216
  %arrayidx22 = getelementptr inbounds i8, ptr %dest, i64 2
  store i16 %conv19, ptr %arrayidx22, align 2
  br label %if.end25

if.end25:                                         ; preds = %if.end4, %_ZN12_GLOBAL__N_114getScriptPropsE11UScriptCode.exit, %if.else, %if.then12, %if.else13
  %length.0 = phi i32 [ 1, %if.then12 ], [ 2, %if.else13 ], [ %cond, %if.else ], [ 0, %_ZN12_GLOBAL__N_114getScriptPropsE11UScriptCode.exit ], [ 0, %if.end4 ]
  %call26 = tail call i32 @u_terminateUChars_75(ptr noundef %dest, i32 noundef %capacity, i32 noundef %length.0, ptr noundef nonnull %pErrorCode)
  br label %return

return:                                           ; preds = %entry, %if.end25, %if.then3
  %retval.0 = phi i32 [ 0, %if.then3 ], [ %call26, %if.end25 ], [ 0, %entry ]
  ret i32 %retval.0
}